; Function Attrs: mustprogress nounwind uwtable
define internal fastcc noundef zeroext i1 @_ZL15MulWillOverflowRN4llvm5APIntES1_b(ptr noundef nonnull align 8 dereferenceable(12) %0, ptr noundef nonnull align 8 dereferenceable(12) %1, i1 noundef zeroext %2) unnamed_addr #0 {
  %4 = alloca i8, align 1
  %5 = alloca %"class.llvm::APInt", align 8
  %6 = alloca %"class.llvm::APInt", align 8
  br i1 %2, label %7, label %13

7:                                                ; preds = %3
  call void @_ZNK4llvm5APInt7smul_ovERKS0_Rb(ptr dead_on_unwind nonnull writable sret(%"class.llvm::APInt") align 8 %5, ptr noundef nonnull align 8 dereferenceable(12) %0, ptr noundef nonnull align 8 dereferenceable(12) %1, ptr noundef nonnull align 1 dereferenceable(1) %4) #16
  %8 = getelementptr inbounds nuw i8, ptr %5, i64 8
  %9 = load i32, ptr %8, align 8
  %10 = icmp ult i32 %9, 65
  %11 = load ptr, ptr %5, align 8
  %12 = icmp eq ptr %11, null
  %or.cond = select i1 %10, i1 true, i1 %12
  br i1 %or.cond, label %_ZN4llvm5APIntD2Ev.exit, label %_ZN4llvm5APIntD2Ev.exit.sink.split

13:                                               ; preds = %3
  call void @_ZNK4llvm5APInt7umul_ovERKS0_Rb(ptr dead_on_unwind nonnull writable sret(%"class.llvm::APInt") align 8 %6, ptr noundef nonnull align 8 dereferenceable(12) %0, ptr noundef nonnull align 8 dereferenceable(12) %1, ptr noundef nonnull align 1 dereferenceable(1) %4) #16
  %14 = getelementptr inbounds nuw i8, ptr %6, i64 8
  %15 = load i32, ptr %14, align 8
  %16 = icmp ult i32 %15, 65
  %17 = load ptr, ptr %6, align 8
  %18 = icmp eq ptr %17, null
  %or.cond7 = select i1 %16, i1 true, i1 %18
  br i1 %or.cond7, label %_ZN4llvm5APIntD2Ev.exit, label %_ZN4llvm5APIntD2Ev.exit.sink.split

_ZN4llvm5APIntD2Ev.exit.sink.split:               ; preds = %13, %7
  %.sink = phi ptr [ %11, %7 ], [ %17, %13 ]
  call void @_ZdaPv(ptr noundef nonnull %.sink) #18
  br label %_ZN4llvm5APIntD2Ev.exit

_ZN4llvm5APIntD2Ev.exit:                          ; preds = %_ZN4llvm5APIntD2Ev.exit.sink.split, %13, %7
  %19 = load i8, ptr %4, align 1
  %20 = trunc i8 %19 to i1
  ret i1 %20
}